target datalayout = "e-m:e-p270:32:32-p271:32:32-p272:64:64-i64:64-i128:128-f80:128-n8:16:32:64-S128"
target triple = "x86_64-pc-linux-gnu"

%struct.UEnumeration = type { ptr, ptr, ptr, ptr, ptr, ptr, ptr }
%struct.UKeywordsContext = type { ptr, ptr }

; Function Attrs: mustprogress uwtable
define internal void @_ZL21uloc_kw_closeKeywordsP12UEnumeration(ptr noundef %0) #1 {
  %2 = alloca ptr, align 8
  store ptr %0, ptr %2, align 8, !tbaa !107
  %3 = load ptr, ptr %2, align 8, !tbaa !107
  %4 = getelementptr inbounds nuw %struct.UEnumeration, ptr %3, i32 0, i32 1
  %5 = load ptr, ptr %4, align 8, !tbaa !99
  %6 = getelementptr inbounds nuw %struct.UKeywordsContext, ptr %5, i32 0, i32 0
  %7 = load ptr, ptr %6, align 8, !tbaa !96
  call void @uprv_free_77(ptr noundef %7)
  %8 = load ptr, ptr %2, align 8, !tbaa !107
  %9 = getelementptr inbounds nuw %struct.UEnumeration, ptr %8, i32 0, i32 1
  %10 = load ptr, ptr %9, align 8, !tbaa !99
  call void @uprv_free_77(ptr noundef %10)
  %11 = load ptr, ptr %2, align 8, !tbaa !107
  call void @uprv_free_77(ptr noundef %11)
  ret void
}