; Function Attrs: mustprogress uwtable
define internal void @_ZL21uloc_kw_closeKeywordsP12UEnumeration(ptr noundef %0) #1 {
  %2 = getelementptr inbounds nuw i8, ptr %0, i64 8
  %3 = load ptr, ptr %2, align 8, !tbaa !90
  %4 = load ptr, ptr %3, align 8, !tbaa !87
  tail call void @uprv_free_77(ptr noundef %4)
  %5 = load ptr, ptr %2, align 8, !tbaa !90
  tail call void @uprv_free_77(ptr noundef %5)
  tail call void @uprv_free_77(ptr noundef %0)
  ret void
}